target datalayout = "e-m:e-p270:32:32-p271:32:32-p272:64:64-i64:64-i128:128-f80:128-n8:16:32:64-S128"
target triple = "x86_64-unknown-linux-gnu"

%struct.ecc_key = type { i32, i32, i32, i32, ptr, ptr, %struct.ecc_point, [1 x %struct.sp_int], ptr }
%struct.ecc_point = type { [1 x %struct.sp_int], [1 x %struct.sp_int], [1 x %struct.sp_int] }
%struct.sp_int = type { i32, i32, [129 x i64] }
%struct.ecc_curve_spec = type { ptr, ptr, ptr, ptr, ptr, ptr, ptr, i32, i32, i8 }

; Function Attrs: nounwind uwtable
define internal void @wc_ecc_del_point_ex(ptr noundef %p, ptr noundef %heap) #0 {
entry:
  %p.addr = alloca ptr, align 8
  %heap.addr = alloca ptr, align 8
  %xp = alloca ptr, align 8
  store ptr %p, ptr %p.addr, align 8
  store ptr %heap, ptr %heap.addr, align 8
  %0 = load ptr, ptr %p.addr, align 8
  %cmp = icmp ne ptr %0, null
  br i1 %cmp, label %if.then, label %if.end4

if.then:                                          ; preds = %entry
  %1 = load ptr, ptr %p.addr, align 8
  %x = getelementptr inbounds %struct.ecc_point, ptr %1, i32 0, i32 0
  %arraydecay = getelementptr inbounds [1 x %struct.sp_int], ptr %x, i64 0, i64 0
  call void @sp_clear(ptr noundef %arraydecay)
  %2 = load ptr, ptr %p.addr, align 8
  %y = getelementptr inbounds %struct.ecc_point, ptr %2, i32 0, i32 1
  %arraydecay1 = getelementptr inbounds [1 x %struct.sp_int], ptr %y, i64 0, i64 0
  call void @sp_clear(ptr noundef %arraydecay1)
  %3 = load ptr, ptr %p.addr, align 8
  %z = getelementptr inbounds %struct.ecc_point, ptr %3, i32 0, i32 2
  %arraydecay2 = getelementptr inbounds [1 x %struct.sp_int], ptr %z, i64 0, i64 0
  call void @sp_clear(ptr noundef %arraydecay2)
  %4 = load ptr, ptr %p.addr, align 8
  store ptr %4, ptr %xp, align 8
  %5 = load ptr, ptr %xp, align 8
  %tobool = icmp ne ptr %5, null
  br i1 %tobool, label %if.then3, label %if.end

if.then3:                                         ; preds = %if.then
  %6 = load ptr, ptr %xp, align 8
  call void @wolfSSL_Free(ptr noundef %6)
  br label %if.end

if.end:                                           ; preds = %if.then3, %if.then
  br label %if.end4

if.end4:                                          ; preds = %if.end, %entry
  ret void
}

; Function Attrs: nounwind uwtable
define internal i32 @wc_ecc_new_point_ex(ptr noundef %point, ptr noundef %heap) #0 {
entry:
  %retval = alloca i32, align 4
  %point.addr = alloca ptr, align 8
  %heap.addr = alloca ptr, align 8
  %err = alloca i32, align 4
  %p = alloca ptr, align 8
  %xp = alloca ptr, align 8
  store ptr %point, ptr %point.addr, align 8
  store ptr %heap, ptr %heap.addr, align 8
  store i32 0, ptr %err, align 4
  %0 = load ptr, ptr %point.addr, align 8
  %cmp = icmp eq ptr %0, null
  br i1 %cmp, label %if.then, label %if.end

if.then:                                          ; preds = %entry
  store i32 -173, ptr %retval, align 4
  br label %return

if.end:                                           ; preds = %entry
  %1 = load ptr, ptr %point.addr, align 8
  %2 = load ptr, ptr %1, align 8
  store ptr %2, ptr %p, align 8
  %3 = load ptr, ptr %p, align 8
  %cmp1 = icmp eq ptr %3, null
  br i1 %cmp1, label %if.then2, label %if.end3

if.then2:                                         ; preds = %if.end
  %call = call ptr @wolfSSL_Malloc(i64 noundef 3120)
  store ptr %call, ptr %p, align 8
  br label %if.end3

if.end3:                                          ; preds = %if.then2, %if.end
  %4 = load ptr, ptr %p, align 8
  %cmp4 = icmp eq ptr %4, null
  br i1 %cmp4, label %if.then5, label %if.end6

if.then5:                                         ; preds = %if.end3
  store i32 -125, ptr %retval, align 4
  br label %return

if.end6:                                          ; preds = %if.end3
  %5 = load ptr, ptr %p, align 8
  call void @llvm.memset.p0.i64(ptr align 8 %5, i8 0, i64 3120, i1 false)
  %6 = load ptr, ptr %p, align 8
  %x = getelementptr inbounds %struct.ecc_point, ptr %6, i32 0, i32 0
  %arraydecay = getelementptr inbounds [1 x %struct.sp_int], ptr %x, i64 0, i64 0
  %7 = load ptr, ptr %p, align 8
  %y = getelementptr inbounds %struct.ecc_point, ptr %7, i32 0, i32 1
  %arraydecay7 = getelementptr inbounds [1 x %struct.sp_int], ptr %y, i64 0, i64 0
  %8 = load ptr, ptr %p, align 8
  %z = getelementptr inbounds %struct.ecc_point, ptr %8, i32 0, i32 2
  %arraydecay8 = getelementptr inbounds [1 x %struct.sp_int], ptr %z, i64 0, i64 0
  %call9 = call i32 @sp_init_multi(ptr noundef %arraydecay, ptr noundef %arraydecay7, ptr noundef %arraydecay8, ptr noundef null, ptr noundef null, ptr noundef null)
  store i32 %call9, ptr %err, align 4
  %9 = load i32, ptr %err, align 4
  %cmp10 = icmp ne i32 %9, 0
  br i1 %cmp10, label %if.then11, label %if.end14

if.then11:                                        ; preds = %if.end6
  %10 = load ptr, ptr %p, align 8
  store ptr %10, ptr %xp, align 8
  %11 = load ptr, ptr %xp, align 8
  %tobool = icmp ne ptr %11, null
  br i1 %tobool, label %if.then12, label %if.end13

if.then12:                                        ; preds = %if.then11
  %12 = load ptr, ptr %xp, align 8
  call void @wolfSSL_Free(ptr noundef %12)
  br label %if.end13

if.end13:                                         ; preds = %if.then12, %if.then11
  %13 = load i32, ptr %err, align 4
  store i32 %13, ptr %retval, align 4
  br label %return

if.end14:                                         ; preds = %if.end6
  %14 = load ptr, ptr %p, align 8
  %15 = load ptr, ptr %point.addr, align 8
  store ptr %14, ptr %15, align 8
  %16 = load i32, ptr %err, align 4
  store i32 %16, ptr %retval, align 4
  br label %return

return:                                           ; preds = %if.end14, %if.end13, %if.then5, %if.then
  %17 = load i32, ptr %retval, align 4
  ret i32 %17
}

; Function Attrs: nounwind uwtable
define i32 @wc_ecc_shared_secret_gen_sync(ptr noundef %private_key, ptr noundef %point, ptr noundef %out, ptr noundef %outlen) #0 {
entry:
  %private_key.addr = alloca ptr, align 8
  %point.addr = alloca ptr, align 8
  %out.addr = alloca ptr, align 8
  %outlen.addr = alloca ptr, align 8
  %err = alloca i32, align 4
  %k = alloca ptr, align 8
  %result = alloca ptr, align 8
  %x = alloca i32, align 4
  %mp = alloca i64, align 8
  %spec_ints = alloca [480 x i8], align 16
  %curve_lcl = alloca %struct.ecc_curve_spec, align 8
  %curve = alloca ptr, align 8
  store ptr %private_key, ptr %private_key.addr, align 8
  store ptr %point, ptr %point.addr, align 8
  store ptr %out, ptr %out.addr, align 8
  store ptr %outlen, ptr %outlen.addr, align 8
  store i32 0, ptr %err, align 4
  %0 = load ptr, ptr %private_key.addr, align 8
  %k1 = getelementptr inbounds %struct.ecc_key, ptr %0, i32 0, i32 7
  %arraydecay = getelementptr inbounds [1 x %struct.sp_int], ptr %k1, i64 0, i64 0
  store ptr %arraydecay, ptr %k, align 8
  store ptr null, ptr %result, align 8
  store i32 0, ptr %x, align 4
  store i64 0, ptr %mp, align 8
  store ptr %curve_lcl, ptr %curve, align 8
  %1 = load ptr, ptr %curve, align 8
  call void @llvm.memset.p0.i64(ptr align 8 %1, i8 0, i64 72, i1 false)
  %arraydecay2 = getelementptr inbounds [480 x i8], ptr %spec_ints, i64 0, i64 0
  %2 = load ptr, ptr %curve, align 8
  %spec_ints3 = getelementptr inbounds %struct.ecc_curve_spec, ptr %2, i32 0, i32 6
  store ptr %arraydecay2, ptr %spec_ints3, align 8
  %3 = load ptr, ptr %curve, align 8
  %spec_count = getelementptr inbounds %struct.ecc_curve_spec, ptr %3, i32 0, i32 7
  store i32 3, ptr %spec_count, align 8
  br label %do.body

do.body:                                          ; preds = %entry
  br label %do.end

do.end:                                           ; preds = %do.body
  %4 = load i32, ptr %err, align 4
  %cmp = icmp eq i32 %4, 0
  br i1 %cmp, label %if.then, label %if.end

if.then:                                          ; preds = %do.end
  %5 = load ptr, ptr %private_key.addr, align 8
  %dp = getelementptr inbounds %struct.ecc_key, ptr %5, i32 0, i32 4
  %6 = load ptr, ptr %dp, align 8
  %call = call i32 @wc_ecc_curve_load(ptr noundef %6, ptr noundef %curve, i8 noundef zeroext 11)
  store i32 %call, ptr %err, align 4
  br label %if.end

if.end:                                           ; preds = %if.then, %do.end
  %7 = load i32, ptr %err, align 4
  %cmp4 = icmp ne i32 %7, 0
  br i1 %cmp4, label %if.then5, label %if.end8

if.then5:                                         ; preds = %if.end
  br label %do.body6

do.body6:                                         ; preds = %if.then5
  br label %do.end7

do.end7:                                          ; preds = %do.body6
  br label %errout

if.end8:                                          ; preds = %if.end
  %8 = load ptr, ptr %private_key.addr, align 8
  %heap = getelementptr inbounds %struct.ecc_key, ptr %8, i32 0, i32 5
  %9 = load ptr, ptr %heap, align 8
  %call9 = call i32 @wc_ecc_new_point_ex(ptr noundef %result, ptr noundef %9)
  store i32 %call9, ptr %err, align 4
  %10 = load i32, ptr %err, align 4
  %cmp10 = icmp ne i32 %10, 0
  br i1 %cmp10, label %if.then11, label %if.end14

if.then11:                                        ; preds = %if.end8
  %11 = load ptr, ptr %curve, align 8
  call void @wc_ecc_curve_free(ptr noundef %11)
  br label %do.body12

do.body12:                                        ; preds = %if.then11
  br label %do.end13

do.end13:                                         ; preds = %do.body12
  br label %errout

if.end14:                                         ; preds = %if.end8
  %12 = load ptr, ptr %private_key.addr, align 8
  %rng = getelementptr inbounds %struct.ecc_key, ptr %12, i32 0, i32 8
  %13 = load ptr, ptr %rng, align 8
  %cmp15 = icmp eq ptr %13, null
  br i1 %cmp15, label %if.then16, label %if.end17

if.then16:                                        ; preds = %if.end14
  store i32 -236, ptr %err, align 4
  br label %if.end17

if.end17:                                         ; preds = %if.then16, %if.end14
  %14 = load i32, ptr %err, align 4
  %cmp18 = icmp eq i32 %14, 0
  br i1 %cmp18, label %if.then19, label %if.end23

if.then19:                                        ; preds = %if.end17
  %15 = load ptr, ptr %k, align 8
  %16 = load ptr, ptr %point.addr, align 8
  %17 = load ptr, ptr %result, align 8
  %18 = load ptr, ptr %curve, align 8
  %Af = getelementptr inbounds %struct.ecc_curve_spec, ptr %18, i32 0, i32 2
  %19 = load ptr, ptr %Af, align 8
  %20 = load ptr, ptr %curve, align 8
  %prime = getelementptr inbounds %struct.ecc_curve_spec, ptr %20, i32 0, i32 1
  %21 = load ptr, ptr %prime, align 8
  %22 = load ptr, ptr %curve, align 8
  %order = getelementptr inbounds %struct.ecc_curve_spec, ptr %22, i32 0, i32 3
  %23 = load ptr, ptr %order, align 8
  %24 = load ptr, ptr %private_key.addr, align 8
  %rng20 = getelementptr inbounds %struct.ecc_key, ptr %24, i32 0, i32 8
  %25 = load ptr, ptr %rng20, align 8
  %26 = load ptr, ptr %private_key.addr, align 8
  %heap21 = getelementptr inbounds %struct.ecc_key, ptr %26, i32 0, i32 5
  %27 = load ptr, ptr %heap21, align 8
  %call22 = call i32 @wc_ecc_mulmod_ex2(ptr noundef %15, ptr noundef %16, ptr noundef %17, ptr noundef %19, ptr noundef %21, ptr noundef %23, ptr noundef %25, i32 noundef 0, ptr noundef %27)
  store i32 %call22, ptr %err, align 4
  br label %if.end23

if.end23:                                         ; preds = %if.then19, %if.end17
  %28 = load i32, ptr %err, align 4
  %cmp24 = icmp eq i32 %28, 0
  br i1 %cmp24, label %if.then25, label %if.end28

if.then25:                                        ; preds = %if.end23
  %29 = load ptr, ptr %curve, align 8
  %prime26 = getelementptr inbounds %struct.ecc_curve_spec, ptr %29, i32 0, i32 1
  %30 = load ptr, ptr %prime26, align 8
  %call27 = call i32 @sp_mont_setup(ptr noundef %30, ptr noundef %mp)
  store i32 %call27, ptr %err, align 4
  br label %if.end28

if.end28:                                         ; preds = %if.then25, %if.end23
  %31 = load i32, ptr %err, align 4
  %cmp29 = icmp eq i32 %31, 0
  br i1 %cmp29, label %if.then30, label %if.end33

if.then30:                                        ; preds = %if.end28
  %32 = load ptr, ptr %result, align 8
  %33 = load ptr, ptr %curve, align 8
  %prime31 = getelementptr inbounds %struct.ecc_curve_spec, ptr %33, i32 0, i32 1
  %34 = load ptr, ptr %prime31, align 8
  %35 = load i64, ptr %mp, align 8
  %call32 = call i32 @ecc_map_ex(ptr noundef %32, ptr noundef %34, i64 noundef %35, i32 noundef 1)
  store i32 %call32, ptr %err, align 4
  br label %if.end33

if.end33:                                         ; preds = %if.then30, %if.end28
  %36 = load i32, ptr %err, align 4
  %cmp34 = icmp eq i32 %36, 0
  br i1 %cmp34, label %if.then35, label %if.end45

if.then35:                                        ; preds = %if.end33
  %37 = load ptr, ptr %curve, align 8
  %prime36 = getelementptr inbounds %struct.ecc_curve_spec, ptr %37, i32 0, i32 1
  %38 = load ptr, ptr %prime36, align 8
  %call37 = call i32 @sp_unsigned_bin_size(ptr noundef %38)
  store i32 %call37, ptr %x, align 4
  %39 = load ptr, ptr %outlen.addr, align 8
  %40 = load i32, ptr %39, align 4
  %41 = load i32, ptr %x, align 4
  %cmp38 = icmp ult i32 %40, %41
  br i1 %cmp38, label %if.then43, label %lor.lhs.false

lor.lhs.false:                                    ; preds = %if.then35
  %42 = load i32, ptr %x, align 4
  %43 = load ptr, ptr %result, align 8
  %x39 = getelementptr inbounds %struct.ecc_point, ptr %43, i32 0, i32 0
  %arraydecay40 = getelementptr inbounds [1 x %struct.sp_int], ptr %x39, i64 0, i64 0
  %call41 = call i32 @sp_unsigned_bin_size(ptr noundef %arraydecay40)
  %cmp42 = icmp slt i32 %42, %call41
  br i1 %cmp42, label %if.then43, label %if.end44

if.then43:                                        ; preds = %lor.lhs.false, %if.then35
  store i32 -132, ptr %err, align 4
  br label %if.end44

if.end44:                                         ; preds = %if.then43, %lor.lhs.false
  br label %if.end45

if.end45:                                         ; preds = %if.end44, %if.end33
  %44 = load i32, ptr %err, align 4
  %cmp46 = icmp eq i32 %44, 0
  br i1 %cmp46, label %if.then47, label %if.end54

if.then47:                                        ; preds = %if.end45
  %45 = load ptr, ptr %out.addr, align 8
  %46 = load i32, ptr %x, align 4
  %conv = sext i32 %46 to i64
  call void @llvm.memset.p0.i64(ptr align 1 %45, i8 0, i64 %conv, i1 false)
  %47 = load ptr, ptr %result, align 8
  %x48 = getelementptr inbounds %struct.ecc_point, ptr %47, i32 0, i32 0
  %arraydecay49 = getelementptr inbounds [1 x %struct.sp_int], ptr %x48, i64 0, i64 0
  %48 = load ptr, ptr %out.addr, align 8
  %49 = load i32, ptr %x, align 4
  %50 = load ptr, ptr %result, align 8
  %x50 = getelementptr inbounds %struct.ecc_point, ptr %50, i32 0, i32 0
  %arraydecay51 = getelementptr inbounds [1 x %struct.sp_int], ptr %x50, i64 0, i64 0
  %call52 = call i32 @sp_unsigned_bin_size(ptr noundef %arraydecay51)
  %sub = sub nsw i32 %49, %call52
  %idx.ext = sext i32 %sub to i64
  %add.ptr = getelementptr inbounds i8, ptr %48, i64 %idx.ext
  %call53 = call i32 @sp_to_unsigned_bin(ptr noundef %arraydecay49, ptr noundef %add.ptr)
  store i32 %call53, ptr %err, align 4
  br label %if.end54

if.end54:                                         ; preds = %if.then47, %if.end45
  %51 = load i32, ptr %x, align 4
  %52 = load ptr, ptr %outlen.addr, align 8
  store i32 %51, ptr %52, align 4
  %53 = load ptr, ptr %result, align 8
  %x55 = getelementptr inbounds %struct.ecc_point, ptr %53, i32 0, i32 0
  %arraydecay56 = getelementptr inbounds [1 x %struct.sp_int], ptr %x55, i64 0, i64 0
  call void @sp_forcezero(ptr noundef %arraydecay56)
  %54 = load ptr, ptr %result, align 8
  %y = getelementptr inbounds %struct.ecc_point, ptr %54, i32 0, i32 1
  %arraydecay57 = getelementptr inbounds [1 x %struct.sp_int], ptr %y, i64 0, i64 0
  call void @sp_forcezero(ptr noundef %arraydecay57)
  %55 = load ptr, ptr %result, align 8
  %56 = load ptr, ptr %private_key.addr, align 8
  %heap58 = getelementptr inbounds %struct.ecc_key, ptr %56, i32 0, i32 5
  %57 = load ptr, ptr %heap58, align 8
  call void @wc_ecc_del_point_ex(ptr noundef %55, ptr noundef %57)
  %58 = load ptr, ptr %curve, align 8
  call void @wc_ecc_curve_free(ptr noundef %58)
  br label %do.body59

do.body59:                                        ; preds = %if.end54
  br label %do.end60

do.end60:                                         ; preds = %do.body59
  br label %errout

errout:                                           ; preds = %do.end60, %do.end13, %do.end7
  %59 = load i32, ptr %err, align 4
  ret i32 %59
}