; Function Attrs: nounwind uwtable
define i32 @wc_ecc_shared_secret_gen_sync(ptr noundef %private_key, ptr noundef %point, ptr noundef %out, ptr noundef captures(none) %outlen) local_unnamed_addr #2 {
entry:
  %mp = alloca i64, align 8
  %spec_ints = alloca [480 x i8], align 16
  %curve_lcl = alloca %struct.ecc_curve_spec, align 8
  %k1 = getelementptr inbounds nuw i8, ptr %private_key, i64 3152
  store i64 0, ptr %mp, align 8
  call void @llvm.memset.p0.i64(ptr noundef nonnull align 8 dereferenceable(72) %curve_lcl, i8 0, i64 72, i1 false)
  %spec_ints3 = getelementptr inbounds nuw i8, ptr %curve_lcl, i64 48
  store ptr %spec_ints, ptr %spec_ints3, align 8
  %spec_count = getelementptr inbounds nuw i8, ptr %curve_lcl, i64 56
  store i32 3, ptr %spec_count, align 8
  %dp = getelementptr inbounds nuw i8, ptr %private_key, i64 16
  %0 = load ptr, ptr %dp, align 8
  %call = call fastcc i32 @wc_ecc_curve_load(ptr noundef %0, ptr nonnull %curve_lcl, i8 noundef zeroext 11)
  %cmp4.not = icmp eq i32 %call, 0
  br i1 %cmp4.not, label %if.end3.i, label %errout

if.end3.i:                                        ; preds = %entry
  %call.i = call ptr @wolfSSL_Malloc(i64 noundef 3120) #19
  %cmp4.i = icmp eq ptr %call.i, null
  br i1 %cmp4.i, label %errout.sink.split, label %if.end6.i

if.end6.i:                                        ; preds = %if.end3.i
  call void @llvm.memset.p0.i64(ptr noundef nonnull align 8 dereferenceable(3120) %call.i, i8 0, i64 3120, i1 false)
  %y.i = getelementptr inbounds nuw i8, ptr %call.i, i64 1040
  %z.i = getelementptr inbounds nuw i8, ptr %call.i, i64 2080
  %call9.i = call i32 @sp_init_multi(ptr noundef nonnull %call.i, ptr noundef nonnull %y.i, ptr noundef nonnull %z.i, ptr noundef null, ptr noundef null, ptr noundef null) #19
  %cmp10.not.i = icmp eq i32 %call9.i, 0
  br i1 %cmp10.not.i, label %if.end14, label %errout.sink.split.sink.split

if.end14:                                         ; preds = %if.end6.i
  %rng = getelementptr inbounds nuw i8, ptr %private_key, i64 4192
  %1 = load ptr, ptr %rng, align 8
  %cmp15.not = icmp eq ptr %1, null
  br i1 %cmp15.not, label %wc_ecc_del_point_ex.exit, label %if.end23

if.end23:                                         ; preds = %if.end14
  %Af = getelementptr inbounds nuw i8, ptr %curve_lcl, i64 16
  %2 = load ptr, ptr %Af, align 8
  %prime = getelementptr inbounds nuw i8, ptr %curve_lcl, i64 8
  %3 = load ptr, ptr %prime, align 8
  %order = getelementptr inbounds nuw i8, ptr %curve_lcl, i64 24
  %4 = load ptr, ptr %order, align 8
  %call22 = call i32 @wc_ecc_mulmod_ex2(ptr noundef nonnull %k1, ptr noundef %point, ptr noundef nonnull %call.i, ptr noundef %2, ptr noundef %3, ptr noundef %4, ptr noundef nonnull %1, i32 noundef 0, ptr poison)
  %cmp24 = icmp eq i32 %call22, 0
  br i1 %cmp24, label %if.end28, label %wc_ecc_del_point_ex.exit

if.end28:                                         ; preds = %if.end23
  %prime26 = getelementptr inbounds nuw i8, ptr %curve_lcl, i64 8
  %5 = load ptr, ptr %prime26, align 8
  %call27 = call i32 @sp_mont_setup(ptr noundef %5, ptr noundef nonnull %mp) #19
  %cmp29 = icmp eq i32 %call27, 0
  br i1 %cmp29, label %if.end33, label %wc_ecc_del_point_ex.exit

if.end33:                                         ; preds = %if.end28
  %6 = load ptr, ptr %prime26, align 8
  %7 = load i64, ptr %mp, align 8
  %call32 = call i32 @ecc_map_ex(ptr noundef nonnull %call.i, ptr noundef %6, i64 noundef %7, i32 noundef 1)
  %cmp34 = icmp eq i32 %call32, 0
  br i1 %cmp34, label %if.then35, label %wc_ecc_del_point_ex.exit

if.then35:                                        ; preds = %if.end33
  %8 = load ptr, ptr %prime26, align 8
  %call37 = call i32 @sp_unsigned_bin_size(ptr noundef %8) #19
  %9 = load i32, ptr %outlen, align 4
  %cmp38 = icmp ult i32 %9, %call37
  br i1 %cmp38, label %wc_ecc_del_point_ex.exit, label %lor.lhs.false

lor.lhs.false:                                    ; preds = %if.then35
  %call41 = call i32 @sp_unsigned_bin_size(ptr noundef nonnull %call.i) #19
  %cmp42 = icmp slt i32 %call37, %call41
  br i1 %cmp42, label %wc_ecc_del_point_ex.exit, label %if.then47

if.then47:                                        ; preds = %lor.lhs.false
  %conv = sext i32 %call37 to i64
  call void @llvm.memset.p0.i64(ptr align 1 %out, i8 0, i64 %conv, i1 false)
  %call52 = call i32 @sp_unsigned_bin_size(ptr noundef nonnull %call.i) #19
  %sub = sub nsw i32 %call37, %call52
  %idx.ext = sext i32 %sub to i64
  %add.ptr = getelementptr inbounds i8, ptr %out, i64 %idx.ext
  %call53 = call i32 @sp_to_unsigned_bin(ptr noundef nonnull %call.i, ptr noundef %add.ptr) #19
  br label %wc_ecc_del_point_ex.exit

wc_ecc_del_point_ex.exit:                         ; preds = %if.end14, %if.then35, %lor.lhs.false, %if.end23, %if.end28, %if.end33, %if.then47
  %x.046 = phi i32 [ %call37, %if.then47 ], [ 0, %if.end33 ], [ 0, %if.end28 ], [ 0, %if.end23 ], [ %call37, %lor.lhs.false ], [ %call37, %if.then35 ], [ 0, %if.end14 ]
  %err.7 = phi i32 [ %call53, %if.then47 ], [ %call32, %if.end33 ], [ %call27, %if.end28 ], [ %call22, %if.end23 ], [ -132, %lor.lhs.false ], [ -132, %if.then35 ], [ -236, %if.end14 ]
  store i32 %x.046, ptr %outlen, align 4
  call void @sp_forcezero(ptr noundef nonnull %call.i) #19
  call void @sp_forcezero(ptr noundef nonnull %y.i) #19
  call void @sp_clear(ptr noundef nonnull %call.i) #19
  call void @sp_clear(ptr noundef nonnull %y.i) #19
  call void @sp_clear(ptr noundef nonnull %z.i) #19
  br label %errout.sink.split.sink.split

errout.sink.split.sink.split:                     ; preds = %if.end6.i, %wc_ecc_del_point_ex.exit
  %err.1.ph.ph = phi i32 [ %err.7, %wc_ecc_del_point_ex.exit ], [ %call9.i, %if.end6.i ]
  call void @wolfSSL_Free(ptr noundef nonnull %call.i) #19
  br label %errout.sink.split

errout.sink.split:                                ; preds = %errout.sink.split.sink.split, %if.end3.i
  %err.1.ph = phi i32 [ -125, %if.end3.i ], [ %err.1.ph.ph, %errout.sink.split.sink.split ]
  call fastcc void @wc_ecc_curve_free(ptr noundef nonnull %curve_lcl)
  br label %errout

errout:                                           ; preds = %errout.sink.split, %entry
  %err.1 = phi i32 [ %call, %entry ], [ %err.1.ph, %errout.sink.split ]
  ret i32 %err.1
}